target datalayout = "e-m:e-p270:32:32-p271:32:32-p272:64:64-i64:64-i128:128-f80:128-n8:16:32:64-S128"
target triple = "x86_64-pc-linux-gnu"

%struct.H5_user_cb_state_t = type { %struct.H5E_user_cb_state_t }
%struct.H5E_user_cb_state_t = type { i32, %union.anon, ptr }
%union.anon = type { ptr }
%struct.H5P_genplist_t = type { ptr, i64, i64, i8, ptr, ptr }
%struct.H5P_genprop_t = type { ptr, i64, ptr, i32, i8, ptr, ptr, ptr, ptr, ptr, ptr, ptr, ptr, ptr }
%struct.H5P_prop_get_ud_t = type { ptr }

@H5P_init_g = external global i8, align 1
@H5_libterm_g = external global i8, align 1
@.str.7 = private unnamed_addr constant [100 x i8] c"generated/home/dtcxzyw/WorkSpace/Projects/compilers/llvm-opt-benchmark/bench/hdf5/hdf5/src/H5Pint.c\00", align 1
@H5E_CANTINIT_g = external global i64, align 8
@H5E_PLIST_g = external global i64, align 8
@H5E_CANTSET_g = external global i64, align 8
@H5E_LIB_g = external global i64, align 8
@.str.26 = private unnamed_addr constant [37 x i8] c"preparation for user callback failed\00", align 1
@H5E_CANTRESTORE_g = external global i64, align 8
@H5E_CANTALLOC_g = external global i64, align 8
@H5E_BADVALUE_g = external global i64, align 8
@.str.49 = private unnamed_addr constant [23 x i8] c"property has zero size\00", align 1
@.str.92 = private unnamed_addr constant [50 x i8] c"memory allocation failed temporary property value\00", align 1
@.str.93 = private unnamed_addr constant [25 x i8] c"can't set property value\00", align 1
@__func__.H5P__get_cb = private unnamed_addr constant [12 x i8] c"H5P__get_cb\00", align 1

; Function Attrs: nounwind uwtable
define internal i32 @H5P__get_cb(ptr noundef %0, ptr noundef %1, ptr noundef %2, ptr noundef %3) #0 {
  %5 = alloca i32, align 4
  %6 = alloca ptr, align 8
  %7 = alloca ptr, align 8
  %8 = alloca ptr, align 8
  %9 = alloca ptr, align 8
  %10 = alloca ptr, align 8
  %11 = alloca ptr, align 8
  %12 = alloca i32, align 4
  %13 = alloca i8, align 1
  %14 = alloca %struct.H5_user_cb_state_t, align 8
  %15 = alloca i32, align 4
  store ptr %0, ptr %6, align 8, !tbaa !59
  store ptr %1, ptr %7, align 8, !tbaa !39
  store ptr %2, ptr %8, align 8, !tbaa !68
  store ptr %3, ptr %9, align 8, !tbaa !40
  call void @llvm.lifetime.start.p0(i64 8, ptr %10) #8
  %16 = load ptr, ptr %9, align 8, !tbaa !40
  store ptr %16, ptr %10, align 8, !tbaa !40
  call void @llvm.lifetime.start.p0(i64 8, ptr %11) #8
  store ptr null, ptr %11, align 8, !tbaa !40
  call void @llvm.lifetime.start.p0(i64 4, ptr %12) #8
  store i32 0, ptr %12, align 4, !tbaa !3
  call void @llvm.lifetime.start.p0(i64 1, ptr %13) #8
  store i8 0, ptr %13, align 1, !tbaa !7
  %17 = load i8, ptr @H5P_init_g, align 1, !tbaa !7, !range !9, !noundef !10
  %18 = trunc i8 %17 to i1
  br i1 %18, label %23, label %19

19:                                               ; preds = %4
  %20 = load i8, ptr @H5_libterm_g, align 1, !tbaa !7, !range !9, !noundef !10
  %21 = trunc i8 %20 to i1
  %22 = xor i1 %21, true
  br label %23

23:                                               ; preds = %19, %4
  %24 = phi i1 [ true, %4 ], [ %22, %19 ]
  %25 = xor i1 %24, true
  %26 = xor i1 %25, true
  %27 = zext i1 %26 to i32
  %28 = sext i32 %27 to i64
  %29 = call i64 @llvm.expect.i64(i64 %28, i64 1)
  %30 = icmp ne i64 %29, 0
  br i1 %30, label %31, label %199

31:                                               ; preds = %23
  %32 = load ptr, ptr %8, align 8, !tbaa !68
  %33 = getelementptr inbounds nuw %struct.H5P_genprop_t, ptr %32, i32 0, i32 1
  %34 = load i64, ptr %33, align 8, !tbaa !76
  %35 = icmp eq i64 0, %34
  br i1 %35, label %36, label %55

36:                                               ; preds = %31
  br label %37

37:                                               ; preds = %36
  br label %38

38:                                               ; preds = %37
  br label %39

39:                                               ; preds = %38
  %40 = load i64, ptr @H5E_PLIST_g, align 8, !tbaa !11
  %41 = load i64, ptr @H5E_BADVALUE_g, align 8, !tbaa !11
  %42 = call i32 (ptr, ptr, i32, i64, i64, ptr, ...) @H5E_printf_stack(ptr noundef @.str.7, ptr noundef @__func__.H5P__get_cb, i32 noundef 4720, i64 noundef %40, i64 noundef %41, ptr noundef @.str.49)
  br label %43

43:                                               ; preds = %39
  br label %44

44:                                               ; preds = %43
  store i8 1, ptr %13, align 1, !tbaa !7
  %45 = load i8, ptr %13, align 1, !tbaa !7, !range !9, !noundef !10
  %46 = trunc i8 %45 to i1
  %47 = zext i1 %46 to i8
  store i8 %47, ptr %13, align 1, !tbaa !7
  br label %48

48:                                               ; preds = %44
  br label %49

49:                                               ; preds = %48
  br label %50

50:                                               ; preds = %49
  store i32 -1, ptr %12, align 4, !tbaa !3
  br label %192

51:                                               ; No predecessors!
  br label %52

52:                                               ; preds = %51
  br label %53

53:                                               ; preds = %52
  br label %54

54:                                               ; preds = %53
  br label %55

55:                                               ; preds = %54, %31
  %56 = load ptr, ptr %8, align 8, !tbaa !68
  %57 = getelementptr inbounds nuw %struct.H5P_genprop_t, ptr %56, i32 0, i32 7
  %58 = load ptr, ptr %57, align 8, !tbaa !97
  %59 = icmp ne ptr null, %58
  br i1 %59, label %60, label %181

60:                                               ; preds = %55
  %61 = load ptr, ptr %8, align 8, !tbaa !68
  %62 = getelementptr inbounds nuw %struct.H5P_genprop_t, ptr %61, i32 0, i32 1
  %63 = load i64, ptr %62, align 8, !tbaa !76
  %64 = call noalias ptr @malloc(i64 noundef %63) #9
  store ptr %64, ptr %11, align 8, !tbaa !40
  %65 = icmp eq ptr null, %64
  br i1 %65, label %66, label %85

66:                                               ; preds = %60
  br label %67

67:                                               ; preds = %66
  br label %68

68:                                               ; preds = %67
  br label %69

69:                                               ; preds = %68
  %70 = load i64, ptr @H5E_PLIST_g, align 8, !tbaa !11
  %71 = load i64, ptr @H5E_CANTALLOC_g, align 8, !tbaa !11
  %72 = call i32 (ptr, ptr, i32, i64, i64, ptr, ...) @H5E_printf_stack(ptr noundef @.str.7, ptr noundef @__func__.H5P__get_cb, i32 noundef 4726, i64 noundef %70, i64 noundef %71, ptr noundef @.str.92)
  br label %73

73:                                               ; preds = %69
  br label %74

74:                                               ; preds = %73
  store i8 1, ptr %13, align 1, !tbaa !7
  %75 = load i8, ptr %13, align 1, !tbaa !7, !range !9, !noundef !10
  %76 = trunc i8 %75 to i1
  %77 = zext i1 %76 to i8
  store i8 %77, ptr %13, align 1, !tbaa !7
  br label %78

78:                                               ; preds = %74
  br label %79

79:                                               ; preds = %78
  br label %80

80:                                               ; preds = %79
  store i32 -1, ptr %12, align 4, !tbaa !3
  br label %192

81:                                               ; No predecessors!
  br label %82

82:                                               ; preds = %81
  br label %83

83:                                               ; preds = %82
  br label %84

84:                                               ; preds = %83
  br label %85

85:                                               ; preds = %84, %60
  %86 = load ptr, ptr %11, align 8, !tbaa !40
  %87 = load ptr, ptr %8, align 8, !tbaa !68
  %88 = getelementptr inbounds nuw %struct.H5P_genprop_t, ptr %87, i32 0, i32 2
  %89 = load ptr, ptr %88, align 8, !tbaa !75
  %90 = load ptr, ptr %8, align 8, !tbaa !68
  %91 = getelementptr inbounds nuw %struct.H5P_genprop_t, ptr %90, i32 0, i32 1
  %92 = load i64, ptr %91, align 8, !tbaa !76
  call void @llvm.memcpy.p0.p0.i64(ptr align 1 %86, ptr align 1 %89, i64 %92, i1 false)
  call void @llvm.lifetime.start.p0(i64 24, ptr %14) #8
  %93 = call i32 @H5_user_cb_prepare(ptr noundef %14)
  %94 = icmp slt i32 %93, 0
  br i1 %94, label %95, label %114

95:                                               ; preds = %85
  br label %96

96:                                               ; preds = %95
  br label %97

97:                                               ; preds = %96
  br label %98

98:                                               ; preds = %97
  %99 = load i64, ptr @H5E_LIB_g, align 8, !tbaa !11
  %100 = load i64, ptr @H5E_CANTSET_g, align 8, !tbaa !11
  %101 = call i32 (ptr, ptr, i32, i64, i64, ptr, ...) @H5E_printf_stack(ptr noundef @.str.7, ptr noundef @__func__.H5P__get_cb, i32 noundef 4730, i64 noundef %99, i64 noundef %100, ptr noundef @.str.26)
  br label %102

102:                                              ; preds = %98
  br label %103

103:                                              ; preds = %102
  store i8 1, ptr %13, align 1, !tbaa !7
  %104 = load i8, ptr %13, align 1, !tbaa !7, !range !9, !noundef !10
  %105 = trunc i8 %104 to i1
  %106 = zext i1 %105 to i8
  store i8 %106, ptr %13, align 1, !tbaa !7
  br label %107

107:                                              ; preds = %103
  br label %108

108:                                              ; preds = %107
  br label %109

109:                                              ; preds = %108
  store i32 -1, ptr %12, align 4, !tbaa !3
  store i32 10, ptr %15, align 4
  br label %149

110:                                              ; No predecessors!
  br label %111

111:                                              ; preds = %110
  br label %112

112:                                              ; preds = %111
  br label %113

113:                                              ; preds = %112
  br label %114

114:                                              ; preds = %113, %85
  %115 = load ptr, ptr %8, align 8, !tbaa !68
  %116 = getelementptr inbounds nuw %struct.H5P_genprop_t, ptr %115, i32 0, i32 7
  %117 = load ptr, ptr %116, align 8, !tbaa !97
  %118 = load ptr, ptr %6, align 8, !tbaa !59
  %119 = getelementptr inbounds nuw %struct.H5P_genplist_t, ptr %118, i32 0, i32 1
  %120 = load i64, ptr %119, align 8, !tbaa !61
  %121 = load ptr, ptr %7, align 8, !tbaa !39
  %122 = load ptr, ptr %8, align 8, !tbaa !68
  %123 = getelementptr inbounds nuw %struct.H5P_genprop_t, ptr %122, i32 0, i32 1
  %124 = load i64, ptr %123, align 8, !tbaa !76
  %125 = load ptr, ptr %11, align 8, !tbaa !40
  %126 = call i32 %117(i64 noundef %120, ptr noundef %121, i64 noundef %124, ptr noundef %125)
  store i32 %126, ptr %12, align 4, !tbaa !3
  %127 = call i32 @H5_user_cb_restore(ptr noundef %14)
  %128 = icmp slt i32 %127, 0
  br i1 %128, label %129, label %148

129:                                              ; preds = %114
  br label %130

130:                                              ; preds = %129
  br label %131

131:                                              ; preds = %130
  br label %132

132:                                              ; preds = %131
  %133 = load i64, ptr @H5E_LIB_g, align 8, !tbaa !11
  %134 = load i64, ptr @H5E_CANTRESTORE_g, align 8, !tbaa !11
  %135 = call i32 (ptr, ptr, i32, i64, i64, ptr, ...) @H5E_printf_stack(ptr noundef @.str.7, ptr noundef @__func__.H5P__get_cb, i32 noundef 4735, i64 noundef %133, i64 noundef %134, ptr noundef @.str.26)
  br label %136

136:                                              ; preds = %132
  br label %137

137:                                              ; preds = %136
  store i8 1, ptr %13, align 1, !tbaa !7
  %138 = load i8, ptr %13, align 1, !tbaa !7, !range !9, !noundef !10
  %139 = trunc i8 %138 to i1
  %140 = zext i1 %139 to i8
  store i8 %140, ptr %13, align 1, !tbaa !7
  br label %141

141:                                              ; preds = %137
  br label %142

142:                                              ; preds = %141
  br label %143

143:                                              ; preds = %142
  store i32 -1, ptr %12, align 4, !tbaa !3
  store i32 10, ptr %15, align 4
  br label %149

144:                                              ; No predecessors!
  br label %145

145:                                              ; preds = %144
  br label %146

146:                                              ; preds = %145
  br label %147

147:                                              ; preds = %146
  br label %148

148:                                              ; preds = %147, %114
  store i32 0, ptr %15, align 4
  br label %149

149:                                              ; preds = %143, %109, %148
  call void @llvm.lifetime.end.p0(i64 24, ptr %14) #8
  %150 = load i32, ptr %15, align 4
  switch i32 %150, label %201 [
    i32 0, label %151
    i32 10, label %192
  ]

151:                                              ; preds = %149
  %152 = load i32, ptr %12, align 4, !tbaa !3
  %153 = icmp slt i32 %152, 0
  br i1 %153, label %154, label %173

154:                                              ; preds = %151
  br label %155

155:                                              ; preds = %154
  br label %156

156:                                              ; preds = %155
  br label %157

157:                                              ; preds = %156
  %158 = load i64, ptr @H5E_PLIST_g, align 8, !tbaa !11
  %159 = load i64, ptr @H5E_CANTINIT_g, align 8, !tbaa !11
  %160 = call i32 (ptr, ptr, i32, i64, i64, ptr, ...) @H5E_printf_stack(ptr noundef @.str.7, ptr noundef @__func__.H5P__get_cb, i32 noundef 4737, i64 noundef %158, i64 noundef %159, ptr noundef @.str.93)
  br label %161

161:                                              ; preds = %157
  br label %162

162:                                              ; preds = %161
  store i8 1, ptr %13, align 1, !tbaa !7
  %163 = load i8, ptr %13, align 1, !tbaa !7, !range !9, !noundef !10
  %164 = trunc i8 %163 to i1
  %165 = zext i1 %164 to i8
  store i8 %165, ptr %13, align 1, !tbaa !7
  br label %166

166:                                              ; preds = %162
  br label %167

167:                                              ; preds = %166
  br label %168

168:                                              ; preds = %167
  store i32 -1, ptr %12, align 4, !tbaa !3
  br label %192

169:                                              ; No predecessors!
  br label %170

170:                                              ; preds = %169
  br label %171

171:                                              ; preds = %170
  br label %172

172:                                              ; preds = %171
  br label %173

173:                                              ; preds = %172, %151
  %174 = load ptr, ptr %10, align 8, !tbaa !40
  %175 = getelementptr inbounds nuw %struct.H5P_prop_get_ud_t, ptr %174, i32 0, i32 0
  %176 = load ptr, ptr %175, align 8, !tbaa !105
  %177 = load ptr, ptr %11, align 8, !tbaa !40
  %178 = load ptr, ptr %8, align 8, !tbaa !68
  %179 = getelementptr inbounds nuw %struct.H5P_genprop_t, ptr %178, i32 0, i32 1
  %180 = load i64, ptr %179, align 8, !tbaa !76
  call void @llvm.memcpy.p0.p0.i64(ptr align 1 %176, ptr align 1 %177, i64 %180, i1 false)
  br label %191

181:                                              ; preds = %55
  %182 = load ptr, ptr %10, align 8, !tbaa !40
  %183 = getelementptr inbounds nuw %struct.H5P_prop_get_ud_t, ptr %182, i32 0, i32 0
  %184 = load ptr, ptr %183, align 8, !tbaa !105
  %185 = load ptr, ptr %8, align 8, !tbaa !68
  %186 = getelementptr inbounds nuw %struct.H5P_genprop_t, ptr %185, i32 0, i32 2
  %187 = load ptr, ptr %186, align 8, !tbaa !75
  %188 = load ptr, ptr %8, align 8, !tbaa !68
  %189 = getelementptr inbounds nuw %struct.H5P_genprop_t, ptr %188, i32 0, i32 1
  %190 = load i64, ptr %189, align 8, !tbaa !76
  call void @llvm.memcpy.p0.p0.i64(ptr align 1 %184, ptr align 1 %187, i64 %190, i1 false)
  br label %191

191:                                              ; preds = %181, %173
  br label %192

192:                                              ; preds = %191, %149, %168, %80, %50
  %193 = load ptr, ptr %11, align 8, !tbaa !40
  %194 = icmp ne ptr %193, null
  br i1 %194, label %195, label %198

195:                                              ; preds = %192
  %196 = load ptr, ptr %11, align 8, !tbaa !40
  %197 = call ptr @H5MM_xfree(ptr noundef %196)
  br label %198

198:                                              ; preds = %195, %192
  br label %199

199:                                              ; preds = %198, %23
  %200 = load i32, ptr %12, align 4, !tbaa !3
  store i32 %200, ptr %5, align 4
  store i32 1, ptr %15, align 4
  br label %201

201:                                              ; preds = %199, %149
  call void @llvm.lifetime.end.p0(i64 1, ptr %13) #8
  call void @llvm.lifetime.end.p0(i64 4, ptr %12) #8
  call void @llvm.lifetime.end.p0(i64 8, ptr %11) #8
  call void @llvm.lifetime.end.p0(i64 8, ptr %10) #8
  %202 = load i32, ptr %5, align 4
  ret i32 %202
}