; Function Attrs: nounwind uwtable
define internal range(i32 -1, -2147483648) i32 @H5P__get_cb(ptr noundef readonly captures(none) %0, ptr noundef %1, ptr noundef readonly captures(none) %2, ptr noundef readonly captures(none) %3) #0 {
  %5 = alloca %struct.H5_user_cb_state_t, align 8
  %6 = load i8, ptr @H5P_init_g, align 1, !tbaa !3, !range !7, !noundef !8
  %7 = trunc nuw i8 %6 to i1
  %8 = load i8, ptr @H5_libterm_g, align 1, !range !7
  %9 = trunc nuw i8 %8 to i1
  %10 = xor i1 %9, true
  %11 = select i1 %7, i1 true, i1 %10
  br i1 %11, label %12, label %.thread38, !prof !9

12:                                               ; preds = %4
  %13 = getelementptr inbounds nuw i8, ptr %2, i64 8
  %14 = load i64, ptr %13, align 8, !tbaa !73
  %15 = icmp eq i64 %14, 0
  br i1 %15, label %16, label %20

16:                                               ; preds = %12
  %17 = load i64, ptr @H5E_PLIST_g, align 8, !tbaa !10
  %18 = load i64, ptr @H5E_BADVALUE_g, align 8, !tbaa !10
  %19 = tail call i32 (ptr, ptr, i32, i64, i64, ptr, ...) @H5E_printf_stack(ptr noundef nonnull @.str.7, ptr noundef nonnull @__func__.H5P__get_cb, i32 noundef 4720, i64 noundef %17, i64 noundef %18, ptr noundef nonnull @.str.49) #14
  br label %.thread38

20:                                               ; preds = %12
  %21 = getelementptr inbounds nuw i8, ptr %2, i64 48
  %22 = load ptr, ptr %21, align 8, !tbaa !88
  %.not = icmp eq ptr %22, null
  br i1 %.not, label %55, label %23

23:                                               ; preds = %20
  %24 = tail call noalias ptr @malloc(i64 noundef %14) #15
  %25 = icmp eq ptr %24, null
  br i1 %25, label %26, label %30

26:                                               ; preds = %23
  %27 = load i64, ptr @H5E_PLIST_g, align 8, !tbaa !10
  %28 = load i64, ptr @H5E_CANTALLOC_g, align 8, !tbaa !10
  %29 = tail call i32 (ptr, ptr, i32, i64, i64, ptr, ...) @H5E_printf_stack(ptr noundef nonnull @.str.7, ptr noundef nonnull @__func__.H5P__get_cb, i32 noundef 4726, i64 noundef %27, i64 noundef %28, ptr noundef nonnull @.str.92) #14
  br label %.thread38

30:                                               ; preds = %23
  %31 = getelementptr inbounds nuw i8, ptr %2, i64 16
  %32 = load ptr, ptr %31, align 8, !tbaa !72
  tail call void @llvm.memcpy.p0.p0.i64(ptr nonnull align 1 %24, ptr align 1 %32, i64 %14, i1 false)
  call void @llvm.lifetime.start.p0(i64 24, ptr nonnull %5) #14
  %33 = call i32 @H5_user_cb_prepare(ptr noundef nonnull %5) #14
  %34 = icmp slt i32 %33, 0
  br i1 %34, label %.thread, label %35

35:                                               ; preds = %30
  %36 = load ptr, ptr %21, align 8, !tbaa !88
  %37 = getelementptr inbounds nuw i8, ptr %0, i64 8
  %38 = load i64, ptr %37, align 8, !tbaa !66
  %39 = load i64, ptr %13, align 8, !tbaa !73
  %40 = call i32 %36(i64 noundef %38, ptr noundef %1, i64 noundef %39, ptr noundef nonnull %24) #14
  %41 = call i32 @H5_user_cb_restore(ptr noundef nonnull %5) #14
  %42 = icmp slt i32 %41, 0
  br i1 %42, label %.thread, label %46

.thread:                                          ; preds = %35, %30
  %H5E_CANTSET_g.sink = phi ptr [ @H5E_CANTSET_g, %30 ], [ @H5E_CANTRESTORE_g, %35 ]
  %.sink = phi i32 [ 4730, %30 ], [ 4735, %35 ]
  %43 = load i64, ptr @H5E_LIB_g, align 8, !tbaa !10
  %44 = load i64, ptr %H5E_CANTSET_g.sink, align 8, !tbaa !10
  %45 = call i32 (ptr, ptr, i32, i64, i64, ptr, ...) @H5E_printf_stack(ptr noundef nonnull @.str.7, ptr noundef nonnull @__func__.H5P__get_cb, i32 noundef %.sink, i64 noundef %43, i64 noundef %44, ptr noundef nonnull @.str.26) #14
  call void @llvm.lifetime.end.p0(i64 24, ptr nonnull %5) #14
  br label %59

46:                                               ; preds = %35
  call void @llvm.lifetime.end.p0(i64 24, ptr nonnull %5) #14
  %47 = icmp slt i32 %40, 0
  br i1 %47, label %48, label %52

48:                                               ; preds = %46
  %49 = load i64, ptr @H5E_PLIST_g, align 8, !tbaa !10
  %50 = load i64, ptr @H5E_CANTINIT_g, align 8, !tbaa !10
  %51 = call i32 (ptr, ptr, i32, i64, i64, ptr, ...) @H5E_printf_stack(ptr noundef nonnull @.str.7, ptr noundef nonnull @__func__.H5P__get_cb, i32 noundef 4737, i64 noundef %49, i64 noundef %50, ptr noundef nonnull @.str.93) #14
  br label %59

52:                                               ; preds = %46
  %53 = load ptr, ptr %3, align 8, !tbaa !95
  %54 = load i64, ptr %13, align 8, !tbaa !73
  call void @llvm.memcpy.p0.p0.i64(ptr align 1 %53, ptr nonnull align 1 %24, i64 %54, i1 false)
  br label %59

55:                                               ; preds = %20
  %56 = load ptr, ptr %3, align 8, !tbaa !95
  %57 = getelementptr inbounds nuw i8, ptr %2, i64 16
  %58 = load ptr, ptr %57, align 8, !tbaa !72
  tail call void @llvm.memcpy.p0.p0.i64(ptr align 1 %56, ptr align 1 %58, i64 %14, i1 false)
  br label %.thread38

59:                                               ; preds = %48, %52, %.thread
  %.1 = phi i32 [ -1, %48 ], [ %40, %52 ], [ -1, %.thread ]
  %60 = call ptr @H5MM_xfree(ptr noundef nonnull %24) #14
  br label %.thread38

.thread38:                                        ; preds = %55, %26, %16, %4, %59
  %.030 = phi i32 [ %.1, %59 ], [ 0, %4 ], [ 0, %55 ], [ -1, %26 ], [ -1, %16 ]
  ret i32 %.030
}